target datalayout = "e-m:e-p270:32:32-p271:32:32-p272:64:64-i64:64-i128:128-f80:128-n8:16:32:64-S128"
target triple = "x86_64-unknown-linux-gnu"

%class.btVector3 = type { [4 x float] }
%struct.AabbCalculationCallback = type { %class.btInternalTriangleIndexCallback, %class.btVector3, %class.btVector3 }
%class.btInternalTriangleIndexCallback = type { ptr }

; Function Attrs: mustprogress nounwind uwtable
define linkonce_odr dso_local void @_Z8btSetMaxIfEvRT_RKS0_(ptr noundef nonnull align 4 dereferenceable(4) %a, ptr noundef nonnull align 4 dereferenceable(4) %b) #1 comdat {
entry:
  %a.addr = alloca ptr, align 8
  %b.addr = alloca ptr, align 8
  store ptr %a, ptr %a.addr, align 8
  store ptr %b, ptr %b.addr, align 8
  %0 = load ptr, ptr %a.addr, align 8
  %1 = load float, ptr %0, align 4
  %2 = load ptr, ptr %b.addr, align 8
  %3 = load float, ptr %2, align 4
  %cmp = fcmp olt float %1, %3
  br i1 %cmp, label %if.then, label %if.end

if.then:                                          ; preds = %entry
  %4 = load ptr, ptr %b.addr, align 8
  %5 = load float, ptr %4, align 4
  %6 = load ptr, ptr %a.addr, align 8
  store float %5, ptr %6, align 4
  br label %if.end

if.end:                                           ; preds = %if.then, %entry
  ret void
}

; Function Attrs: mustprogress nounwind uwtable
define linkonce_odr dso_local noundef nonnull align 4 dereferenceable(4) ptr @_ZNK9btVector31wEv(ptr noundef nonnull align 4 dereferenceable(16) %this) #1 comdat align 2 {
entry:
  %this.addr = alloca ptr, align 8
  store ptr %this, ptr %this.addr, align 8
  %this1 = load ptr, ptr %this.addr, align 8
  %m_floats = getelementptr inbounds %class.btVector3, ptr %this1, i32 0, i32 0
  %arrayidx = getelementptr inbounds [4 x float], ptr %m_floats, i64 0, i64 3
  ret ptr %arrayidx
}

; Function Attrs: mustprogress nounwind uwtable
define linkonce_odr dso_local void @_Z8btSetMinIfEvRT_RKS0_(ptr noundef nonnull align 4 dereferenceable(4) %a, ptr noundef nonnull align 4 dereferenceable(4) %b) #1 comdat {
entry:
  %a.addr = alloca ptr, align 8
  %b.addr = alloca ptr, align 8
  store ptr %a, ptr %a.addr, align 8
  store ptr %b, ptr %b.addr, align 8
  %0 = load ptr, ptr %b.addr, align 8
  %1 = load float, ptr %0, align 4
  %2 = load ptr, ptr %a.addr, align 8
  %3 = load float, ptr %2, align 4
  %cmp = fcmp olt float %1, %3
  br i1 %cmp, label %if.then, label %if.end

if.then:                                          ; preds = %entry
  %4 = load ptr, ptr %b.addr, align 8
  %5 = load float, ptr %4, align 4
  %6 = load ptr, ptr %a.addr, align 8
  store float %5, ptr %6, align 4
  br label %if.end

if.end:                                           ; preds = %if.then, %entry
  ret void
}

; Function Attrs: mustprogress uwtable
define linkonce_odr dso_local void @_ZN9btVector36setMaxERKS_(ptr noundef nonnull align 4 dereferenceable(16) %this, ptr noundef nonnull align 4 dereferenceable(16) %other) #3 comdat align 2 {
entry:
  %this.addr = alloca ptr, align 8
  %other.addr = alloca ptr, align 8
  store ptr %this, ptr %this.addr, align 8
  store ptr %other, ptr %other.addr, align 8
  %this1 = load ptr, ptr %this.addr, align 8
  %m_floats = getelementptr inbounds %class.btVector3, ptr %this1, i32 0, i32 0
  %arrayidx = getelementptr inbounds [4 x float], ptr %m_floats, i64 0, i64 0
  %0 = load ptr, ptr %other.addr, align 8
  %m_floats2 = getelementptr inbounds %class.btVector3, ptr %0, i32 0, i32 0
  %arrayidx3 = getelementptr inbounds [4 x float], ptr %m_floats2, i64 0, i64 0
  call void @_Z8btSetMaxIfEvRT_RKS0_(ptr noundef nonnull align 4 dereferenceable(4) %arrayidx, ptr noundef nonnull align 4 dereferenceable(4) %arrayidx3)
  %m_floats4 = getelementptr inbounds %class.btVector3, ptr %this1, i32 0, i32 0
  %arrayidx5 = getelementptr inbounds [4 x float], ptr %m_floats4, i64 0, i64 1
  %1 = load ptr, ptr %other.addr, align 8
  %m_floats6 = getelementptr inbounds %class.btVector3, ptr %1, i32 0, i32 0
  %arrayidx7 = getelementptr inbounds [4 x float], ptr %m_floats6, i64 0, i64 1
  call void @_Z8btSetMaxIfEvRT_RKS0_(ptr noundef nonnull align 4 dereferenceable(4) %arrayidx5, ptr noundef nonnull align 4 dereferenceable(4) %arrayidx7)
  %m_floats8 = getelementptr inbounds %class.btVector3, ptr %this1, i32 0, i32 0
  %arrayidx9 = getelementptr inbounds [4 x float], ptr %m_floats8, i64 0, i64 2
  %2 = load ptr, ptr %other.addr, align 8
  %m_floats10 = getelementptr inbounds %class.btVector3, ptr %2, i32 0, i32 0
  %arrayidx11 = getelementptr inbounds [4 x float], ptr %m_floats10, i64 0, i64 2
  call void @_Z8btSetMaxIfEvRT_RKS0_(ptr noundef nonnull align 4 dereferenceable(4) %arrayidx9, ptr noundef nonnull align 4 dereferenceable(4) %arrayidx11)
  %m_floats12 = getelementptr inbounds %class.btVector3, ptr %this1, i32 0, i32 0
  %arrayidx13 = getelementptr inbounds [4 x float], ptr %m_floats12, i64 0, i64 3
  %3 = load ptr, ptr %other.addr, align 8
  %call = call noundef nonnull align 4 dereferenceable(4) ptr @_ZNK9btVector31wEv(ptr noundef nonnull align 4 dereferenceable(16) %3)
  call void @_Z8btSetMaxIfEvRT_RKS0_(ptr noundef nonnull align 4 dereferenceable(4) %arrayidx13, ptr noundef nonnull align 4 dereferenceable(4) %call)
  ret void
}

; Function Attrs: mustprogress uwtable
define linkonce_odr dso_local void @_ZN9btVector36setMinERKS_(ptr noundef nonnull align 4 dereferenceable(16) %this, ptr noundef nonnull align 4 dereferenceable(16) %other) #3 comdat align 2 {
entry:
  %this.addr = alloca ptr, align 8
  %other.addr = alloca ptr, align 8
  store ptr %this, ptr %this.addr, align 8
  store ptr %other, ptr %other.addr, align 8
  %this1 = load ptr, ptr %this.addr, align 8
  %m_floats = getelementptr inbounds %class.btVector3, ptr %this1, i32 0, i32 0
  %arrayidx = getelementptr inbounds [4 x float], ptr %m_floats, i64 0, i64 0
  %0 = load ptr, ptr %other.addr, align 8
  %m_floats2 = getelementptr inbounds %class.btVector3, ptr %0, i32 0, i32 0
  %arrayidx3 = getelementptr inbounds [4 x float], ptr %m_floats2, i64 0, i64 0
  call void @_Z8btSetMinIfEvRT_RKS0_(ptr noundef nonnull align 4 dereferenceable(4) %arrayidx, ptr noundef nonnull align 4 dereferenceable(4) %arrayidx3)
  %m_floats4 = getelementptr inbounds %class.btVector3, ptr %this1, i32 0, i32 0
  %arrayidx5 = getelementptr inbounds [4 x float], ptr %m_floats4, i64 0, i64 1
  %1 = load ptr, ptr %other.addr, align 8
  %m_floats6 = getelementptr inbounds %class.btVector3, ptr %1, i32 0, i32 0
  %arrayidx7 = getelementptr inbounds [4 x float], ptr %m_floats6, i64 0, i64 1
  call void @_Z8btSetMinIfEvRT_RKS0_(ptr noundef nonnull align 4 dereferenceable(4) %arrayidx5, ptr noundef nonnull align 4 dereferenceable(4) %arrayidx7)
  %m_floats8 = getelementptr inbounds %class.btVector3, ptr %this1, i32 0, i32 0
  %arrayidx9 = getelementptr inbounds [4 x float], ptr %m_floats8, i64 0, i64 2
  %2 = load ptr, ptr %other.addr, align 8
  %m_floats10 = getelementptr inbounds %class.btVector3, ptr %2, i32 0, i32 0
  %arrayidx11 = getelementptr inbounds [4 x float], ptr %m_floats10, i64 0, i64 2
  call void @_Z8btSetMinIfEvRT_RKS0_(ptr noundef nonnull align 4 dereferenceable(4) %arrayidx9, ptr noundef nonnull align 4 dereferenceable(4) %arrayidx11)
  %m_floats12 = getelementptr inbounds %class.btVector3, ptr %this1, i32 0, i32 0
  %arrayidx13 = getelementptr inbounds [4 x float], ptr %m_floats12, i64 0, i64 3
  %3 = load ptr, ptr %other.addr, align 8
  %call = call noundef nonnull align 4 dereferenceable(4) ptr @_ZNK9btVector31wEv(ptr noundef nonnull align 4 dereferenceable(16) %3)
  call void @_Z8btSetMinIfEvRT_RKS0_(ptr noundef nonnull align 4 dereferenceable(4) %arrayidx13, ptr noundef nonnull align 4 dereferenceable(4) %call)
  ret void
}

; Function Attrs: mustprogress uwtable
define internal void @_ZZN23btStridingMeshInterface23calculateAabbBruteForceER9btVector3S1_EN23AabbCalculationCallback28internalProcessTriangleIndexEPS0_ii(ptr noundef nonnull align 8 dereferenceable(40) %this, ptr noundef %triangle, i32 noundef %partId, i32 noundef %triangleIndex) unnamed_addr #3 align 2 {
entry:
  %this.addr = alloca ptr, align 8
  %triangle.addr = alloca ptr, align 8
  %partId.addr = alloca i32, align 4
  %triangleIndex.addr = alloca i32, align 4
  store ptr %this, ptr %this.addr, align 8
  store ptr %triangle, ptr %triangle.addr, align 8
  store i32 %partId, ptr %partId.addr, align 4
  store i32 %triangleIndex, ptr %triangleIndex.addr, align 4
  %this1 = load ptr, ptr %this.addr, align 8
  %m_aabbMin = getelementptr inbounds %struct.AabbCalculationCallback, ptr %this1, i32 0, i32 1
  %0 = load ptr, ptr %triangle.addr, align 8
  %arrayidx = getelementptr inbounds %class.btVector3, ptr %0, i64 0
  call void @_ZN9btVector36setMinERKS_(ptr noundef nonnull align 4 dereferenceable(16) %m_aabbMin, ptr noundef nonnull align 4 dereferenceable(16) %arrayidx)
  %m_aabbMax = getelementptr inbounds %struct.AabbCalculationCallback, ptr %this1, i32 0, i32 2
  %1 = load ptr, ptr %triangle.addr, align 8
  %arrayidx2 = getelementptr inbounds %class.btVector3, ptr %1, i64 0
  call void @_ZN9btVector36setMaxERKS_(ptr noundef nonnull align 4 dereferenceable(16) %m_aabbMax, ptr noundef nonnull align 4 dereferenceable(16) %arrayidx2)
  %m_aabbMin3 = getelementptr inbounds %struct.AabbCalculationCallback, ptr %this1, i32 0, i32 1
  %2 = load ptr, ptr %triangle.addr, align 8
  %arrayidx4 = getelementptr inbounds %class.btVector3, ptr %2, i64 1
  call void @_ZN9btVector36setMinERKS_(ptr noundef nonnull align 4 dereferenceable(16) %m_aabbMin3, ptr noundef nonnull align 4 dereferenceable(16) %arrayidx4)
  %m_aabbMax5 = getelementptr inbounds %struct.AabbCalculationCallback, ptr %this1, i32 0, i32 2
  %3 = load ptr, ptr %triangle.addr, align 8
  %arrayidx6 = getelementptr inbounds %class.btVector3, ptr %3, i64 1
  call void @_ZN9btVector36setMaxERKS_(ptr noundef nonnull align 4 dereferenceable(16) %m_aabbMax5, ptr noundef nonnull align 4 dereferenceable(16) %arrayidx6)
  %m_aabbMin7 = getelementptr inbounds %struct.AabbCalculationCallback, ptr %this1, i32 0, i32 1
  %4 = load ptr, ptr %triangle.addr, align 8
  %arrayidx8 = getelementptr inbounds %class.btVector3, ptr %4, i64 2
  call void @_ZN9btVector36setMinERKS_(ptr noundef nonnull align 4 dereferenceable(16) %m_aabbMin7, ptr noundef nonnull align 4 dereferenceable(16) %arrayidx8)
  %m_aabbMax9 = getelementptr inbounds %struct.AabbCalculationCallback, ptr %this1, i32 0, i32 2
  %5 = load ptr, ptr %triangle.addr, align 8
  %arrayidx10 = getelementptr inbounds %class.btVector3, ptr %5, i64 2
  call void @_ZN9btVector36setMaxERKS_(ptr noundef nonnull align 4 dereferenceable(16) %m_aabbMax9, ptr noundef nonnull align 4 dereferenceable(16) %arrayidx10)
  ret void
}